; Function Attrs: nounwind uwtable
define ptr @l_Except_tryCatch___rarg(ptr noundef %0, ptr noundef %1) #0 {
  %3 = ptrtoint ptr %0 to i64
  %4 = and i64 %3, 1
  %.not.i24 = icmp eq i64 %4, 0
  br i1 %.not.i24, label %8, label %5

5:                                                ; preds = %2
  %6 = lshr i64 %3, 1
  %7 = trunc i64 %6 to i32
  br label %lean_obj_tag.exit

8:                                                ; preds = %2
  %9 = getelementptr i8, ptr %0, i64 4
  %.val.i = load i32, ptr %9, align 4
  %10 = lshr i32 %.val.i, 24
  br label %lean_obj_tag.exit

lean_obj_tag.exit:                                ; preds = %5, %8
  %.0.i = phi i32 [ %7, %5 ], [ %10, %8 ]
  %11 = icmp eq i32 %.0.i, 0
  br i1 %11, label %12, label %31

12:                                               ; preds = %lean_obj_tag.exit
  %13 = getelementptr inbounds nuw i8, ptr %0, i64 8
  %14 = load ptr, ptr %13, align 8, !tbaa !9
  %15 = ptrtoint ptr %14 to i64
  %16 = and i64 %15, 1
  %.not32 = icmp eq i64 %16, 0
  br i1 %.not32, label %17, label %lean_inc.exit19

17:                                               ; preds = %12
  %.val.i25 = load i32, ptr %14, align 4, !tbaa !4
  %18 = icmp sgt i32 %.val.i25, 0
  br i1 %18, label %19, label %21, !prof !13

19:                                               ; preds = %17
  %20 = add nuw i32 %.val.i25, 1
  store i32 %20, ptr %14, align 4, !tbaa !4
  br label %lean_inc.exit19

21:                                               ; preds = %17
  %.not.i26 = icmp eq i32 %.val.i25, 0
  br i1 %.not.i26, label %lean_inc.exit19, label %22

22:                                               ; preds = %21
  tail call void @lean_inc_ref_cold(ptr noundef nonnull %14) #5
  br label %lean_inc.exit19

lean_inc.exit19:                                  ; preds = %22, %21, %19, %12
  br i1 %.not.i24, label %23, label %lean_dec.exit18

23:                                               ; preds = %lean_inc.exit19
  %24 = load i32, ptr %0, align 4, !tbaa !4
  %25 = icmp sgt i32 %24, 1
  br i1 %25, label %26, label %28, !prof !13

26:                                               ; preds = %23
  %27 = add nsw i32 %24, -1
  store i32 %27, ptr %0, align 4, !tbaa !4
  br label %lean_dec.exit18

28:                                               ; preds = %23
  %.not.i = icmp eq i32 %24, 0
  br i1 %.not.i, label %lean_dec.exit18, label %29

29:                                               ; preds = %28
  tail call void @lean_dec_ref_cold(ptr noundef nonnull %0) #5
  br label %lean_dec.exit18

lean_dec.exit18:                                  ; preds = %29, %28, %26, %lean_inc.exit19
  %30 = tail call ptr @lean_apply_1(ptr noundef %1, ptr noundef %14) #5
  br label %65

31:                                               ; preds = %lean_obj_tag.exit
  %32 = ptrtoint ptr %1 to i64
  %33 = and i64 %32, 1
  %.not = icmp eq i64 %33, 0
  br i1 %.not, label %34, label %lean_dec.exit17

34:                                               ; preds = %31
  %35 = load i32, ptr %1, align 4, !tbaa !4
  %36 = icmp sgt i32 %35, 1
  br i1 %36, label %37, label %39, !prof !13

37:                                               ; preds = %34
  %38 = add nsw i32 %35, -1
  store i32 %38, ptr %1, align 4, !tbaa !4
  br label %lean_dec.exit17

39:                                               ; preds = %34
  %.not.i20 = icmp eq i32 %35, 0
  br i1 %.not.i20, label %lean_dec.exit17, label %40

40:                                               ; preds = %39
  tail call void @lean_dec_ref_cold(ptr noundef nonnull %1) #5
  br label %lean_dec.exit17

lean_dec.exit17:                                  ; preds = %40, %39, %37, %31
  %.val = load i32, ptr %0, align 4, !tbaa !4
  %41 = icmp eq i32 %.val, 1
  br i1 %41, label %65, label %42

42:                                               ; preds = %lean_dec.exit17
  %43 = getelementptr inbounds nuw i8, ptr %0, i64 8
  %44 = load ptr, ptr %43, align 8, !tbaa !9
  %45 = ptrtoint ptr %44 to i64
  %46 = and i64 %45, 1
  %.not30 = icmp eq i64 %46, 0
  br i1 %.not30, label %47, label %lean_inc.exit

47:                                               ; preds = %42
  %.val.i27 = load i32, ptr %44, align 4, !tbaa !4
  %48 = icmp sgt i32 %.val.i27, 0
  br i1 %48, label %49, label %51, !prof !13

49:                                               ; preds = %47
  %50 = add nuw i32 %.val.i27, 1
  store i32 %50, ptr %44, align 4, !tbaa !4
  br label %lean_inc.exit

51:                                               ; preds = %47
  %.not.i28 = icmp eq i32 %.val.i27, 0
  br i1 %.not.i28, label %lean_inc.exit, label %52

52:                                               ; preds = %51
  tail call void @lean_inc_ref_cold(ptr noundef nonnull %44) #5
  br label %lean_inc.exit

lean_inc.exit:                                    ; preds = %52, %51, %49, %42
  br i1 %.not.i24, label %53, label %lean_dec.exit

53:                                               ; preds = %lean_inc.exit
  %54 = load i32, ptr %0, align 4, !tbaa !4
  %55 = icmp sgt i32 %54, 1
  br i1 %55, label %56, label %58, !prof !13

56:                                               ; preds = %53
  %57 = add nsw i32 %54, -1
  store i32 %57, ptr %0, align 4, !tbaa !4
  br label %lean_dec.exit

58:                                               ; preds = %53
  %.not.i22 = icmp eq i32 %54, 0
  br i1 %.not.i22, label %lean_dec.exit, label %59

59:                                               ; preds = %58
  tail call void @lean_dec_ref_cold(ptr noundef nonnull %0) #5
  br label %lean_dec.exit

lean_dec.exit:                                    ; preds = %59, %58, %56, %lean_inc.exit
  tail call void @lean_inc_heartbeat() #5
  %60 = tail call noalias ptr @mi_malloc_small(i64 noundef 16) #5
  %61 = icmp eq ptr %60, null
  br i1 %61, label %62, label %lean_alloc_ctor.exit

62:                                               ; preds = %lean_dec.exit
  tail call void @lean_internal_panic_out_of_memory() #6
  unreachable

lean_alloc_ctor.exit:                             ; preds = %lean_dec.exit
  %63 = getelementptr inbounds nuw i8, ptr %60, i64 4
  store i32 1, ptr %60, align 4, !tbaa !4
  store i32 16842768, ptr %63, align 4
  %64 = getelementptr inbounds nuw i8, ptr %60, i64 8
  store ptr %44, ptr %64, align 8, !tbaa !9
  br label %65

65:                                               ; preds = %lean_alloc_ctor.exit, %lean_dec.exit17, %lean_dec.exit18
  %.0 = phi ptr [ %30, %lean_dec.exit18 ], [ %60, %lean_alloc_ctor.exit ], [ %0, %lean_dec.exit17 ]
  ret ptr %.0
}